; Function Attrs: nounwind uwtable
define hidden i32 @lj_lib_checkopt(ptr noundef %0, i32 noundef %1, i32 noundef %2, ptr noundef readonly captures(none) %3) local_unnamed_addr #0 {
  %5 = icmp sgt i32 %2, -1
  %6 = getelementptr inbounds nuw i8, ptr %0, i64 32
  %7 = load ptr, ptr %6, align 8, !tbaa !17
  %8 = sext i32 %1 to i64
  %9 = getelementptr inbounds %union.TValue, ptr %7, i64 %8
  %10 = getelementptr inbounds i8, ptr %9, i64 -8
  %11 = getelementptr inbounds nuw i8, ptr %0, i64 40
  %12 = load ptr, ptr %11, align 8, !tbaa !16
  %13 = icmp ult ptr %10, %12
  br i1 %5, label %14, label %31

14:                                               ; preds = %4
  br i1 %13, label %15, label %lj_lib_optstr.exit.thread

15:                                               ; preds = %14
  %16 = load i64, ptr %10, align 8, !tbaa !14
  %17 = icmp eq i64 %16, -1
  br i1 %17, label %lj_lib_optstr.exit.thread, label %18

18:                                               ; preds = %15
  %19 = ashr i64 %16, 47
  %20 = icmp eq i64 %19, -5
  br i1 %20, label %21, label %24, !prof !18

21:                                               ; preds = %18
  %22 = and i64 %16, 140737488355327
  %23 = inttoptr i64 %22 to ptr
  br label %lj_lib_optstr.exit

24:                                               ; preds = %18
  %25 = icmp ult i64 %19, -13
  br i1 %25, label %26, label %30

26:                                               ; preds = %24
  %27 = tail call ptr @lj_strfmt_number(ptr noundef nonnull %0, ptr noundef nonnull %10) #8
  %28 = ptrtoint ptr %27 to i64
  %29 = or i64 %28, -703687441776640
  store i64 %29, ptr %10, align 8, !tbaa !14
  br label %lj_lib_optstr.exit

30:                                               ; preds = %24
  tail call void @lj_err_argt(ptr noundef nonnull %0, i32 noundef %1, i32 noundef 4) #9
  unreachable

31:                                               ; preds = %4
  br i1 %13, label %32, label %45

32:                                               ; preds = %31
  %33 = load i64, ptr %10, align 8, !tbaa !14
  %34 = ashr i64 %33, 47
  %35 = icmp eq i64 %34, -5
  br i1 %35, label %36, label %39, !prof !18

36:                                               ; preds = %32
  %37 = and i64 %33, 140737488355327
  %38 = inttoptr i64 %37 to ptr
  br label %lj_lib_optstr.exit

39:                                               ; preds = %32
  %40 = icmp ult i64 %34, -13
  br i1 %40, label %41, label %45

41:                                               ; preds = %39
  %42 = tail call ptr @lj_strfmt_number(ptr noundef nonnull %0, ptr noundef nonnull %10) #8
  %43 = ptrtoint ptr %42 to i64
  %44 = or i64 %43, -703687441776640
  store i64 %44, ptr %10, align 8, !tbaa !14
  br label %lj_lib_optstr.exit

45:                                               ; preds = %39, %31
  tail call void @lj_err_argt(ptr noundef nonnull %0, i32 noundef %1, i32 noundef 4) #9
  unreachable

lj_lib_optstr.exit:                               ; preds = %41, %36, %26, %21
  %46 = phi ptr [ %23, %21 ], [ %27, %26 ], [ %38, %36 ], [ %42, %41 ]
  %.not = icmp eq ptr %46, null
  br i1 %.not, label %lj_lib_optstr.exit.thread, label %47

47:                                               ; preds = %lj_lib_optstr.exit
  %48 = getelementptr inbounds nuw i8, ptr %46, i64 24
  %49 = getelementptr inbounds nuw i8, ptr %46, i64 20
  %50 = load i32, ptr %49, align 4, !tbaa !49
  %51 = load i8, ptr %3, align 1, !tbaa !14
  %.not2730 = icmp eq i8 %51, 0
  br i1 %.not2730, label %._crit_edge, label %.lr.ph

.lr.ph:                                           ; preds = %47
  %52 = zext nneg i32 %50 to i64
  br label %53

53:                                               ; preds = %.lr.ph, %60
  %54 = phi i8 [ %51, %.lr.ph ], [ %65, %60 ]
  %.032 = phi i32 [ 0, %.lr.ph ], [ %64, %60 ]
  %.02331 = phi ptr [ %3, %.lr.ph ], [ %63, %60 ]
  %55 = zext i8 %54 to i32
  %56 = icmp eq i32 %50, %55
  br i1 %56, label %57, label %60

57:                                               ; preds = %53
  %58 = getelementptr inbounds nuw i8, ptr %.02331, i64 1
  %bcmp = tail call i32 @bcmp(ptr nonnull %48, ptr nonnull %58, i64 %52)
  %59 = icmp eq i32 %bcmp, 0
  br i1 %59, label %lj_lib_optstr.exit.thread, label %60

60:                                               ; preds = %57, %53
  %61 = zext i8 %54 to i64
  %62 = getelementptr inbounds nuw i8, ptr %.02331, i64 %61
  %63 = getelementptr inbounds nuw i8, ptr %62, i64 1
  %64 = add nuw nsw i32 %.032, 1
  %65 = load i8, ptr %63, align 1, !tbaa !14
  %.not27 = icmp eq i8 %65, 0
  br i1 %.not27, label %._crit_edge, label %53, !llvm.loop !50

._crit_edge:                                      ; preds = %60, %47
  tail call void (ptr, i32, i32, ...) @lj_err_argv(ptr noundef %0, i32 noundef %1, i32 noundef 1199, ptr noundef nonnull %48) #9
  unreachable

lj_lib_optstr.exit.thread:                        ; preds = %57, %14, %15, %lj_lib_optstr.exit
  %.022 = phi i32 [ %2, %lj_lib_optstr.exit ], [ %2, %15 ], [ %2, %14 ], [ %.032, %57 ]
  ret i32 %.022
}